(dp0
I1
cnumpy.core.multiarray
scalar
p1
(cnumpy
dtype
p2
(S'f8'
p3
I0
I1
tp4
Rp5
(I3
S'<'
p6
NNNI-1
I-1
I0
tp7
bS'\xc3\xf5\xec\xdc\rM\x82@'
p8
tp9
Rp10
sI2
g1
(g5
S'\x85\xebQHlk\x02@'
p11
tp12
Rp13
sI3
g1
(g5
S')\\\x8f*\xd2l\x02@'
p14
tp15
Rp16
sI4
g1
(g5
S'\x00\x00\x00\x10Rm\x02@'
p17
tp18
Rp19
sI5
g1
(g5
S'\x1f\x85\xeb\xd5em\x02@'
p20
tp21
Rp22
sI6
g1
(g5
S'\x14\xaeG\x1dhm\x02@'
p23
tp24
Rp25
sI7
g1
(g5
S'\xa4p=^hm\x02@'
p26
tp27
Rp28
sI8
g1
(g5
S'333ghm\x02@'
p29
tp30
Rp31
sI9
g1
(g5
S'\xaeG\xe1fhm\x02@'
p32
tp33
Rp34
sI10
g1
(g5
S'\x8f\xc2\xf5hhm\x02@'
p35
tp36
Rp37
sI11
g1
(g5
S'\xf6(\\ghm\x02@'
p38
tp39
Rp40
sI12
g1
(g5
S'H\xe1zhhm\x02@'
p41
tp42
Rp43
sI13
g1
(g5
S'333ghm\x02@'
p44
tp45
Rp46
sI14
g1
(g5
S'H\xe1zhhm\x02@'
p47
tp48
Rp49
sI15
g1
(g5
S'\n\xd7\xa3hhm\x02@'
p50
tp51
Rp52
sI16
g1
(g5
S'333ghm\x02@'
p53
tp54
Rp55
sI17
g1
(g5
S'\x1f\x85\xebehm\x02@'
p56
tp57
Rp58
sI18
g1
(g5
S'\x8f\xc2\xf5hhm\x02@'
p59
tp60
Rp61
sI19
g1
(g5
S'333ghm\x02@'
p62
tp63
Rp64
sI20
g1
(g5
S'{\x14\xaeghm\x02@'
p65
tp66
Rp67
sI21
g1
(g5
S'=\n\xd7ghm\x02@'
p68
tp69
Rp70
sI22
g1
(g5
S'\xecQ\xb8fhm\x02@'
p71
tp72
Rp73
sI23
g1
(g5
S'\xcd\xcc\xcchhm\x02@'
p74
tp75
Rp76
sI24
g1
(g5
S'\n\xd7\xa3hhm\x02@'
p77
tp78
Rp79
sI25
g1
(g5
S'\x85\xebQhhm\x02@'
p80
tp81
Rp82
sI26
g1
(g5
S'\xa4p=fhm\x02@'
p83
tp84
Rp85
sI27
g1
(g5
S'q=\nghm\x02@'
p86
tp87
Rp88
sI28
g1
(g5
S'{\x14\xaeghm\x02@'
p89
tp90
Rp91
sI29
g1
(g5
S')\\\x8ffhm\x02@'
p92
tp93
Rp94
sI30
g1
(g5
S'333ghm\x02@'
p95
tp96
Rp97
sI31
g1
(g5
S'\xecQ\xb8fhm\x02@'
p98
tp99
Rp100
sI32
g1
(g5
S'\xecQ\xb8fhm\x02@'
p101
tp102
Rp103
sI33
g1
(g5
S'ffffhm\x02@'
p104
tp105
Rp106
sI34
g1
(g5
S'\x85\xebQhhm\x02@'
p107
tp108
Rp109
sI35
g1
(g5
S'\xcd\xcc\xcchhm\x02@'
p110
tp111
Rp112
sI36
g1
(g5
S'q=\nghm\x02@'
p113
tp114
Rp115
sI37
g1
(g5
S'q=\nghm\x02@'
p116
tp117
Rp118
sI38
g1
(g5
S'\xb8\x1e\x85ghm\x02@'
p119
tp120
Rp121
sI39
g1
(g5
S'\n\xd7\xa3hhm\x02@'
p122
tp123
Rp124
sI40
g1
(g5
S'\x00\x00\x00hhm\x02@'
p125
tp126
Rp127
sI41
g1
(g5
S'333ghm\x02@'
p128
tp129
Rp130
sI42
g1
(g5
S'{\x14\xaeghm\x02@'
p131
tp132
Rp133
sI43
g1
(g5
S'\x85\xebQhhm\x02@'
p134
tp135
Rp136
sI44
g1
(g5
S'333ghm\x02@'
p137
tp138
Rp139
sI45
g1
(g5
S'\x85\xebQhhm\x02@'
p140
tp141
Rp142
sI46
g1
(g5
S'\xc3\xf5(hhm\x02@'
p143
tp144
Rp145
sI47
g1
(g5
S'\n\xd7\xa3hhm\x02@'
p146
tp147
Rp148
sI48
g1
(g5
S'\x85\xebQhhm\x02@'
p149
tp150
Rp151
sI49
g1
(g5
S'\xa4p=fhm\x02@'
p152
tp153
Rp154
sI50
g1
(g5
S'\xcd\xcc\xcchhm\x02@'
p155
tp156
Rp157
s.